target datalayout = "e-m:e-p270:32:32-p271:32:32-p272:64:64-i64:64-i128:128-f80:128-n8:16:32:64-S128"
target triple = "x86_64-pc-linux-gnu"

%"struct.Atomic::PlatformAdd" = type { i8 }

@.str.24 = private unnamed_addr constant [1 x i8] zeroinitializer, align 1
@.str.45 = private unnamed_addr constant [5 x i8] c"/tmp\00", align 1
@_ZZ15linux_wrap_codePcmE3cnt = internal global i32 0, align 4
@UseOprofile = external global i8, align 1
@.str.184 = private unnamed_addr constant [15 x i8] c"%s/hs-vm-%d-%d\00", align 1

; Function Attrs: mustprogress nounwind uwtable
define linkonce_odr hidden noundef i32 @_ZNK6Atomic11PlatformAddILm4EE14fetch_then_addIiiEET_PVS3_T0_19atomic_memory_order(ptr noundef nonnull align 1 dereferenceable(1) %0, ptr noundef %1, i32 noundef %2, i32 noundef %3) #1 comdat align 2 {
  %5 = alloca ptr, align 8
  %6 = alloca ptr, align 8
  %7 = alloca i32, align 4
  %8 = alloca i32, align 4
  %9 = alloca i32, align 4
  store ptr %0, ptr %5, align 8
  store ptr %1, ptr %6, align 8
  store i32 %2, ptr %7, align 4
  store i32 %3, ptr %8, align 4
  %10 = load i32, ptr %7, align 4
  %11 = load ptr, ptr %6, align 8
  %12 = call i32 asm sideeffect "lock xaddl $0,($2)", "=r,0,r,~{cc},~{memory},~{dirflag},~{fpsr},~{flags}"(i32 %10, ptr %11) #12, !srcloc !56
  store i32 %12, ptr %9, align 4
  %13 = load i32, ptr %9, align 4
  ret i32 %13
}

; Function Attrs: mustprogress nounwind uwtable
define linkonce_odr hidden noundef i32 @_ZNK6Atomic11PlatformAddILm4EE14add_then_fetchIiiEET_PVS3_T0_19atomic_memory_order(ptr noundef nonnull align 1 dereferenceable(1) %0, ptr noundef %1, i32 noundef %2, i32 noundef %3) #1 comdat align 2 {
  %5 = alloca ptr, align 8
  %6 = alloca ptr, align 8
  %7 = alloca i32, align 4
  %8 = alloca i32, align 4
  store ptr %0, ptr %5, align 8
  store ptr %1, ptr %6, align 8
  store i32 %2, ptr %7, align 4
  store i32 %3, ptr %8, align 4
  %9 = load ptr, ptr %5, align 8
  %10 = load ptr, ptr %6, align 8
  %11 = load i32, ptr %7, align 4
  %12 = load i32, ptr %8, align 4
  %13 = call noundef i32 @_ZNK6Atomic11PlatformAddILm4EE14fetch_then_addIiiEET_PVS3_T0_19atomic_memory_order(ptr noundef nonnull align 1 dereferenceable(1) %9, ptr noundef %10, i32 noundef %11, i32 noundef %12)
  %14 = load i32, ptr %7, align 4
  %15 = add nsw i32 %13, %14
  ret i32 %15
}

; Function Attrs: mustprogress nounwind uwtable
define linkonce_odr hidden noundef i32 @_ZN6Atomic7AddImplIiivE14add_then_fetchEPVii19atomic_memory_order(ptr noundef %0, i32 noundef %1, i32 noundef %2) #1 comdat align 2 {
  %4 = alloca ptr, align 8
  %5 = alloca i32, align 4
  %6 = alloca i32, align 4
  %7 = alloca i32, align 4
  %8 = alloca %"struct.Atomic::PlatformAdd", align 1
  store ptr %0, ptr %4, align 8
  store i32 %1, ptr %5, align 4
  store i32 %2, ptr %6, align 4
  %9 = load i32, ptr %5, align 4
  store i32 %9, ptr %7, align 4
  %10 = load ptr, ptr %4, align 8
  %11 = load i32, ptr %7, align 4
  %12 = load i32, ptr %6, align 4
  %13 = call noundef i32 @_ZNK6Atomic11PlatformAddILm4EE14add_then_fetchIiiEET_PVS3_T0_19atomic_memory_order(ptr noundef nonnull align 1 dereferenceable(1) %8, ptr noundef %10, i32 noundef %11, i32 noundef %12)
  ret i32 %13
}

; Function Attrs: mustprogress nounwind uwtable
define hidden noundef i32 @_ZN2os18current_process_idEv() #1 align 2 {
  %1 = call i32 @getpid() #12
  ret i32 %1
}

; Function Attrs: mustprogress nounwind uwtable
define hidden noundef ptr @_ZN2os18get_temp_directoryEv() #1 align 2 {
  ret ptr @.str.45
}

; Function Attrs: mustprogress nounwind uwtable
define linkonce_odr hidden noundef i32 @_ZN6Atomic3addIiiEET_PVS1_T0_19atomic_memory_order(ptr noundef %0, i32 noundef %1, i32 noundef %2) #1 comdat align 2 {
  %4 = alloca ptr, align 8
  %5 = alloca i32, align 4
  %6 = alloca i32, align 4
  store ptr %0, ptr %4, align 8
  store i32 %1, ptr %5, align 4
  store i32 %2, ptr %6, align 4
  %7 = load ptr, ptr %4, align 8
  %8 = load i32, ptr %5, align 4
  %9 = load i32, ptr %6, align 4
  %10 = call noundef i32 @_ZN6Atomic7AddImplIiivE14add_then_fetchEPVii19atomic_memory_order(ptr noundef %7, i32 noundef %8, i32 noundef %9)
  ret i32 %10
}

; Function Attrs: mustprogress nounwind uwtable
define hidden void @_Z15linux_wrap_codePcm(ptr noundef %0, i64 noundef %1) #1 {
  %3 = alloca ptr, align 8
  %4 = alloca i64, align 8
  %5 = alloca [4097 x i8], align 16
  %6 = alloca i32, align 4
  %7 = alloca i32, align 4
  %8 = alloca i64, align 8
  store ptr %0, ptr %3, align 8
  store i64 %1, ptr %4, align 8
  %9 = load i8, ptr @UseOprofile, align 1
  %10 = trunc i8 %9 to i1
  br i1 %10, label %12, label %11

11:                                               ; preds = %2
  br label %47

12:                                               ; preds = %2
  %13 = call noundef i32 @_ZN6Atomic3addIiiEET_PVS1_T0_19atomic_memory_order(ptr noundef @_ZZ15linux_wrap_codePcmE3cnt, i32 noundef 1, i32 noundef 8)
  store i32 %13, ptr %6, align 4
  %14 = getelementptr inbounds [4097 x i8], ptr %5, i64 0, i64 0
  %15 = call noundef ptr @_ZN2os18get_temp_directoryEv()
  %16 = call noundef i32 @_ZN2os18current_process_idEv()
  %17 = load i32, ptr %6, align 4
  %18 = call i32 (ptr, i64, ptr, ...) @snprintf(ptr noundef %14, i64 noundef 4097, ptr noundef @.str.184, ptr noundef %15, i32 noundef %16, i32 noundef %17) #12
  %19 = getelementptr inbounds [4097 x i8], ptr %5, i64 0, i64 0
  %20 = call i32 @unlink(ptr noundef %19) #12
  %21 = getelementptr inbounds [4097 x i8], ptr %5, i64 0, i64 0
  %22 = call i32 (ptr, i32, ...) @open64(ptr noundef %21, i32 noundef 66, i32 noundef 448)
  store i32 %22, ptr %7, align 4
  %23 = load i32, ptr %7, align 4
  %24 = icmp ne i32 %23, -1
  br i1 %24, label %25, label %47

25:                                               ; preds = %12
  %26 = load i32, ptr %7, align 4
  %27 = load i64, ptr %4, align 8
  %28 = sub i64 %27, 2
  %29 = call i64 @lseek64(i32 noundef %26, i64 noundef %28, i32 noundef 0) #12
  store i64 %29, ptr %8, align 8
  %30 = load i64, ptr %8, align 8
  %31 = icmp ne i64 %30, -1
  br i1 %31, label %32, label %42

32:                                               ; preds = %25
  %33 = load i32, ptr %7, align 4
  %34 = call i64 @write(i32 noundef %33, ptr noundef @.str.24, i64 noundef 1)
  %35 = icmp eq i64 %34, 1
  br i1 %35, label %36, label %41

36:                                               ; preds = %32
  %37 = load ptr, ptr %3, align 8
  %38 = load i64, ptr %4, align 8
  %39 = load i32, ptr %7, align 4
  %40 = call ptr @mmap64(ptr noundef %37, i64 noundef %38, i32 noundef 7, i32 noundef 16402, i32 noundef %39, i64 noundef 0) #12
  br label %41

41:                                               ; preds = %36, %32
  br label %42

42:                                               ; preds = %41, %25
  %43 = load i32, ptr %7, align 4
  %44 = call i32 @close(i32 noundef %43)
  %45 = getelementptr inbounds [4097 x i8], ptr %5, i64 0, i64 0
  %46 = call i32 @unlink(ptr noundef %45) #12
  br label %47

47:                                               ; preds = %42, %12, %11
  ret void
}