; Function Attrs: mustprogress nounwind uwtable
define hidden void @_Z15linux_wrap_codePcm(ptr noundef %0, i64 noundef %1) local_unnamed_addr #0 {
  %3 = alloca [4097 x i8], align 16
  %4 = load i8, ptr @UseOprofile, align 1
  %5 = trunc i8 %4 to i1
  br i1 %5, label %6, label %24

6:                                                ; preds = %2
  %7 = tail call noundef i32 asm sideeffect "lock xaddl $0,($2)", "=r,0,r,~{cc},~{memory},~{dirflag},~{fpsr},~{flags}"(i32 1, ptr nonnull @_ZZ15linux_wrap_codePcmE3cnt) #26, !srcloc !32
  %8 = add nsw i32 %7, 1
  %9 = tail call noundef i32 @getpid() #26
  %10 = call i32 (ptr, i64, ptr, ...) @snprintf(ptr noundef nonnull dereferenceable(1) %3, i64 noundef 4097, ptr noundef nonnull @.str.184, ptr noundef nonnull @.str.45, i32 noundef %9, i32 noundef %8) #26
  %11 = call i32 @unlink(ptr noundef nonnull %3) #26
  %12 = call i32 (ptr, i32, ...) @open64(ptr noundef nonnull %3, i32 noundef 66, i32 noundef 448) #26
  %.not = icmp eq i32 %12, -1
  br i1 %.not, label %24, label %13

13:                                               ; preds = %6
  %14 = add i64 %1, -2
  %15 = tail call i64 @lseek64(i32 noundef %12, i64 noundef %14, i32 noundef 0) #26
  %.not9 = icmp eq i64 %15, -1
  br i1 %.not9, label %21, label %16

16:                                               ; preds = %13
  %17 = tail call i64 @write(i32 noundef %12, ptr noundef nonnull @.str.24, i64 noundef 1) #26
  %18 = icmp eq i64 %17, 1
  br i1 %18, label %19, label %21

19:                                               ; preds = %16
  %20 = tail call ptr @mmap64(ptr noundef %0, i64 noundef %1, i32 noundef 7, i32 noundef 16402, i32 noundef %12, i64 noundef 0) #26
  br label %21

21:                                               ; preds = %16, %19, %13
  %22 = tail call i32 @close(i32 noundef %12) #26
  %23 = call i32 @unlink(ptr noundef nonnull %3) #26
  br label %24

24:                                               ; preds = %2, %21, %6
  ret void
}